(lp0
(dp1
S'project_name'
p2
V\u043f\u043b\u0430\u043d\u0438\u0440\u043e\u0432\u0430\u043d\u0438\u0435
p3
sS'color'
p4
S'#3c6526'
p5
sS'client_name'
p6
V\u043a
p7
sS'client_id'
p8
I14897786
sS'project_id'
p9
I6796415
sS'weekly_hours'
p10
(lp11
I0
aI0
aI0
aI0
aI0
aI0
aI0
aI0
aI0
aI0
aI0
aI0
aI0
aI0
aI0
aI0
aI0
aI0
asa(dp12
g2
V\u043b\u044e\u0434\u0438
p13
sg4
S'#999999'
p14
sg6
g7
sg8
I14897786
sg9
I4428727
sg10
(lp15
F12.13
aF10.45
aF11.61
aF16.23
aF10.67
aF13.08
aF8.66
aF11.53
aF13.68
aF10.57
aF10.4
aF7.78
aF9.11
aI0
aF8.5
aF6.15
aF8.39
aF7.03
asa(dp16
g2
V\u043e\u0431\u0441\u043b\u0443\u0436\u0438\u0432\u0430\u043d\u0438\u0435
p17
sg4
S'#094558'
p18
sg6
g7
sg8
I14897786
sg9
I6796407
sg10
(lp19
I0
aI0
aI0
aI0
aI0
aI0
aI0
aI0
aI0
aI0
aI0
aI0
aI0
aI0
aI0
aI0
aI0
aI0
asa(dp20
g2
V\u043c\u0438\u0448\u0430
p21
sg4
S'#bc2d07'
p22
sg6
g7
sg8
I14897786
sg9
I4928792
sg10
(lp23
I0
aF5.61
aF8.79
aF7.25
aF10.42
aF0.85
aI0
aI0
aF0.13
aI0
aI0
aI0
aI0
aI0
aI0
aI0
aI0
aI0
asa(dp24
g2
V\u043d\u043e\u0432\u043e\u0435
p25
sg4
S'#bc85e6'
p26
sg6
g7
sg8
I14897786
sg9
I4428730
sg10
(lp27
F0.74
aF4.77
aF0.47
aF3.54
aF0.4
aF8.41
aF7.23
aF7.4
aF2.63
aF1.89
aF6.62
aF2.58
aF4.7
aI0
aI0
aF2.62
aF1.94
aF0.72
asa(dp28
g2
V\u0440\u0443\u0442\u0438\u043d\u0430
p29
sg4
S'#67412c'
p30
sg6
V\u0441\u0444
p31
sg8
I14897787
sg9
I4428711
sg10
(lp32
F2.48
aF2.18
aF0.31
aF2.72
aF2.34
aF3.34
aF4.15
aF4.63
aF3.63
aF5.28
aF1.67
aF2.34
aF1.8
aI0
aF0.4
aF3.51
aF3.76
aF1.91
asa(dp33
g2
V\u043d\u043e\u0432\u043e\u0435
p34
sg4
S'#f68d38'
p35
sg6
g31
sg8
I14897787
sg9
I4428072
sg10
(lp36
F9.51
aF7.01
aF0.34
aI0
aF0.02
aI0
aI0
aI0
aI0
aF0.47
aI0
aF0.44
aI0
aI0
aF3.0
aF0.92
aF0.25
aF2.77
asa(dp37
g2
V\u0440\u0443\u0442\u0438\u043d\u0430
p38
sg4
g18
sg6
V\u0431\u0431
p39
sg8
I14899549
sg9
I4432239
sg10
(lp40
F1.56
aF1.01
aF2.45
aF0.63
aF0.84
aF2.9
aF1.32
aF0.78
aF0.94
aF0.0
aF0.04
aF4.59
aF0.45
aI0
aF0.09
aF0.16
aF1.03
aF0.48
asa(dp41
g2
V\u043d\u043e\u0432\u043e\u0435
p42
sg4
S'#df7baa'
p43
sg6
g39
sg8
I14899549
sg9
I4437004
sg10
(lp44
F1.89
aI0
aI0
aI0
aI0
aI0
aI0
aF0.5
aI0
aI0
aI0
aF0.45
aI0
aI0
aI0
aI0
aI0
aI0
asa(dp45
g2
V\u0440\u0430\u0431\u043e\u0442\u0430
p46
sg4
S'#4dc3ff'
p47
sg6
V\u0434\u0440\u043e\u043f\u0448\u043e\u043f, \u041a\u0418
p48
sg8
I14923395
sg9
I4490988
sg10
(lp49
F1.34
aF0.28
aF0.6
aF0.19
aF0.2
aF0.38
aF1.1
aF3.17
aF1.23
aF0.15
aI0
aI0
aI0
aI0
aI0
aI0
aI0
aI0
asa(dp50
g2
V\u0440\u0430\u0437\u0440\u0430\u0431\u043e\u0442\u043a\u0430
p51
sg4
g43
sg6
g48
sg8
I14923395
sg9
I4490971
sg10
(lp52
I0
aI0
aI0
aI0
aI0
aI0
aI0
aI0
aI0
aI0
aI0
aI0
aI0
aI0
aI0
aI0
aI0
aI0
asa(dp53
g2
V\u0445\u0432\u043e\u0441\u0442\u044b \u0438 \u0432\u043d\u0435\u043f\u043b\u0430\u043d\u043e\u0432\u044b\u0435 \u0434\u0435\u043b\u0430
p54
sg4
g22
sg6
S'No client'
p55
sg8
I0
sg9
I4432474
sg10
(lp56
I0
aI0
aI0
aI0
aI0
aI0
aI0
aI0
aF2.04
aF2.16
aF0.98
aF4.28
aF0.05
aI0
aF0.22
aF1.76
aF0.48
aF0.16
asa(dp57
g2
V\u0447\u0438\u0441\u0442\u043a\u0430, \u043f\u043b\u0430\u043d\u0438\u0440\u043e\u0432\u0430\u043d\u0438\u0435
p58
sg4
S'#6668b4'
p59
sg6
g55
sg8
I0
sg9
I4432412
sg10
(lp60
F0.84
aF2.9
aF2.14
aF2.25
aF1.7
aF2.42
aF1.94
aF3.06
aF6.06
aF4.08
aF4.67
aF5.63
aF1.6
aI0
aF0.73
aF3.38
aF3.39
aF0.84
asa(dp61
g2
S'No project'
p62
sg4
S'black'
p63
sg6
g55
sg8
Nsg9
Nsg10
(lp64
F0.01
aF0.53
aI0
aI0
aI0
aI0
aF0.0
aF0.0
aF0.18
aF0.0
aF0.08
aI0
aI0
aI0
aF0.32
aI0
aI0
aI0
asa.